target datalayout = "e-m:e-p270:32:32-p271:32:32-p272:64:64-i64:64-i128:128-f80:128-n8:16:32:64-S128"
target triple = "x86_64-pc-linux-gnu"

%struct.luaL_Stream = type { ptr, ptr }

@.str.16 = private unnamed_addr constant [6 x i8] c"FILE*\00", align 1
@.str.41 = private unnamed_addr constant [14 x i8] c"file (closed)\00", align 1
@.str.42 = private unnamed_addr constant [10 x i8] c"file (%p)\00", align 1

; Function Attrs: nounwind uwtable
define internal i32 @f_tostring(ptr noundef %0) #0 {
  %2 = alloca ptr, align 8
  %3 = alloca ptr, align 8
  store ptr %0, ptr %2, align 8, !tbaa !4
  call void @llvm.lifetime.start.p0(i64 8, ptr %3) #8
  %4 = load ptr, ptr %2, align 8, !tbaa !4
  %5 = call ptr @luaL_checkudata(ptr noundef %4, i32 noundef 1, ptr noundef @.str.16)
  store ptr %5, ptr %3, align 8, !tbaa !13
  %6 = load ptr, ptr %3, align 8, !tbaa !13
  %7 = getelementptr inbounds nuw %struct.luaL_Stream, ptr %6, i32 0, i32 1
  %8 = load ptr, ptr %7, align 8, !tbaa !17
  %9 = icmp eq ptr %8, null
  br i1 %9, label %10, label %13

10:                                               ; preds = %1
  %11 = load ptr, ptr %2, align 8, !tbaa !4
  %12 = call ptr @lua_pushstring(ptr noundef %11, ptr noundef @.str.41)
  br label %19

13:                                               ; preds = %1
  %14 = load ptr, ptr %2, align 8, !tbaa !4
  %15 = load ptr, ptr %3, align 8, !tbaa !13
  %16 = getelementptr inbounds nuw %struct.luaL_Stream, ptr %15, i32 0, i32 0
  %17 = load ptr, ptr %16, align 8, !tbaa !15
  %18 = call ptr (ptr, ptr, ...) @lua_pushfstring(ptr noundef %14, ptr noundef @.str.42, ptr noundef %17)
  br label %19

19:                                               ; preds = %13, %10
  call void @llvm.lifetime.end.p0(i64 8, ptr %3) #8
  ret i32 1
}